target datalayout = "e-m:e-p270:32:32-p271:32:32-p272:64:64-i64:64-i128:128-f80:128-n8:16:32:64-S128"
target triple = "x86_64-pc-linux-gnu"

%struct.TLS_FEATURE_NAME = type { i64, ptr }

@tls_feature_tbl = internal global [2 x %struct.TLS_FEATURE_NAME] [%struct.TLS_FEATURE_NAME { i64 5, ptr @.str.1 }, %struct.TLS_FEATURE_NAME { i64 17, ptr @.str.2 }], align 16

; Function Attrs: inlinehint nounwind uwtable
define internal ptr @ossl_check_const_ASN1_INTEGER_sk_type(ptr noundef %0) #3 {
  %2 = alloca ptr, align 8
  store ptr %0, ptr %2, align 8, !tbaa !3
  %3 = load ptr, ptr %2, align 8, !tbaa !3
  ret ptr %3
}

; Function Attrs: nounwind uwtable
define internal ptr @i2v_TLS_FEATURE(ptr noundef %0, ptr noundef %1, ptr noundef %2) #0 {
  %4 = alloca ptr, align 8
  %5 = alloca ptr, align 8
  %6 = alloca ptr, align 8
  %7 = alloca i32, align 4
  %8 = alloca i64, align 8
  %9 = alloca ptr, align 8
  %10 = alloca i64, align 8
  store ptr %0, ptr %4, align 8, !tbaa !8
  store ptr %1, ptr %5, align 8, !tbaa !3
  store ptr %2, ptr %6, align 8, !tbaa !10
  call void @llvm.lifetime.start.p0(i64 4, ptr %7) #5
  call void @llvm.lifetime.start.p0(i64 8, ptr %8) #5
  call void @llvm.lifetime.start.p0(i64 8, ptr %9) #5
  call void @llvm.lifetime.start.p0(i64 8, ptr %10) #5
  store i32 0, ptr %7, align 4, !tbaa !12
  br label %11

11:                                               ; preds = %52, %3
  %12 = load i32, ptr %7, align 4, !tbaa !12
  %13 = load ptr, ptr %5, align 8, !tbaa !3
  %14 = call ptr @ossl_check_const_ASN1_INTEGER_sk_type(ptr noundef %13)
  %15 = call i32 @OPENSSL_sk_num(ptr noundef %14)
  %16 = icmp slt i32 %12, %15
  br i1 %16, label %17, label %55

17:                                               ; preds = %11
  %18 = load ptr, ptr %5, align 8, !tbaa !3
  %19 = call ptr @ossl_check_const_ASN1_INTEGER_sk_type(ptr noundef %18)
  %20 = load i32, ptr %7, align 4, !tbaa !12
  %21 = call ptr @OPENSSL_sk_value(ptr noundef %19, i32 noundef %20)
  store ptr %21, ptr %9, align 8, !tbaa !14
  %22 = load ptr, ptr %9, align 8, !tbaa !14
  %23 = call i64 @ASN1_INTEGER_get(ptr noundef %22)
  store i64 %23, ptr %10, align 8, !tbaa !16
  store i64 0, ptr %8, align 8, !tbaa !16
  br label %24

24:                                               ; preds = %36, %17
  %25 = load i64, ptr %8, align 8, !tbaa !16
  %26 = icmp ult i64 %25, 2
  br i1 %26, label %27, label %39

27:                                               ; preds = %24
  %28 = load i64, ptr %10, align 8, !tbaa !16
  %29 = load i64, ptr %8, align 8, !tbaa !16
  %30 = getelementptr inbounds nuw [2 x %struct.TLS_FEATURE_NAME], ptr @tls_feature_tbl, i64 0, i64 %29
  %31 = getelementptr inbounds nuw %struct.TLS_FEATURE_NAME, ptr %30, i32 0, i32 0
  %32 = load i64, ptr %31, align 16, !tbaa !18
  %33 = icmp eq i64 %28, %32
  br i1 %33, label %34, label %35

34:                                               ; preds = %27
  br label %39

35:                                               ; preds = %27
  br label %36

36:                                               ; preds = %35
  %37 = load i64, ptr %8, align 8, !tbaa !16
  %38 = add i64 %37, 1
  store i64 %38, ptr %8, align 8, !tbaa !16
  br label %24, !llvm.loop !21

39:                                               ; preds = %34, %24
  %40 = load i64, ptr %8, align 8, !tbaa !16
  %41 = icmp ult i64 %40, 2
  br i1 %41, label %42, label %48

42:                                               ; preds = %39
  %43 = load i64, ptr %8, align 8, !tbaa !16
  %44 = getelementptr inbounds nuw [2 x %struct.TLS_FEATURE_NAME], ptr @tls_feature_tbl, i64 0, i64 %43
  %45 = getelementptr inbounds nuw %struct.TLS_FEATURE_NAME, ptr %44, i32 0, i32 1
  %46 = load ptr, ptr %45, align 8, !tbaa !23
  %47 = call i32 @X509V3_add_value(ptr noundef null, ptr noundef %46, ptr noundef %6)
  br label %51

48:                                               ; preds = %39
  %49 = load ptr, ptr %9, align 8, !tbaa !14
  %50 = call i32 @X509V3_add_value_int(ptr noundef null, ptr noundef %49, ptr noundef %6)
  br label %51

51:                                               ; preds = %48, %42
  br label %52

52:                                               ; preds = %51
  %53 = load i32, ptr %7, align 4, !tbaa !12
  %54 = add nsw i32 %53, 1
  store i32 %54, ptr %7, align 4, !tbaa !12
  br label %11, !llvm.loop !24

55:                                               ; preds = %11
  %56 = load ptr, ptr %6, align 8, !tbaa !10
  call void @llvm.lifetime.end.p0(i64 8, ptr %10) #5
  call void @llvm.lifetime.end.p0(i64 8, ptr %9) #5
  call void @llvm.lifetime.end.p0(i64 8, ptr %8) #5
  call void @llvm.lifetime.end.p0(i64 4, ptr %7) #5
  ret ptr %56
}