; Function Attrs: nounwind uwtable
define internal ptr @i2v_TLS_FEATURE(ptr readnone captures(none) %0, ptr noundef %1, ptr noundef %2) #0 {
  %4 = alloca ptr, align 8
  store ptr %2, ptr %4, align 8, !tbaa !3
  %5 = tail call i32 @OPENSSL_sk_num(ptr noundef %1) #5
  %6 = icmp sgt i32 %5, 0
  br i1 %6, label %.lr.ph, label %._crit_edge

.lr.ph:                                           ; preds = %3, %20
  %.015 = phi i32 [ %21, %20 ], [ 0, %3 ]
  %7 = call ptr @OPENSSL_sk_value(ptr noundef %1, i32 noundef %.015) #5
  %8 = call i64 @ASN1_INTEGER_get(ptr noundef %7) #5
  br label %9

9:                                                ; preds = %.lr.ph, %14
  %10 = phi i1 [ true, %.lr.ph ], [ false, %14 ]
  %.01214 = phi i64 [ 0, %.lr.ph ], [ 1, %14 ]
  %11 = getelementptr inbounds nuw [2 x %struct.TLS_FEATURE_NAME], ptr @tls_feature_tbl, i64 0, i64 %.01214
  %12 = load i64, ptr %11, align 16, !tbaa !8
  %13 = icmp eq i64 %8, %12
  br i1 %13, label %15, label %14

14:                                               ; preds = %9
  br i1 %10, label %9, label %.critedge, !llvm.loop !12

15:                                               ; preds = %9
  %16 = getelementptr inbounds nuw [2 x %struct.TLS_FEATURE_NAME], ptr @tls_feature_tbl, i64 0, i64 %.01214, i32 1
  %17 = load ptr, ptr %16, align 8, !tbaa !14
  %18 = call i32 @X509V3_add_value(ptr noundef null, ptr noundef %17, ptr noundef nonnull %4) #5
  br label %20

.critedge:                                        ; preds = %14
  %19 = call i32 @X509V3_add_value_int(ptr noundef null, ptr noundef %7, ptr noundef nonnull %4) #5
  br label %20

20:                                               ; preds = %15, %.critedge
  %21 = add nuw nsw i32 %.015, 1
  %22 = call i32 @OPENSSL_sk_num(ptr noundef %1) #5
  %23 = icmp slt i32 %21, %22
  br i1 %23, label %.lr.ph, label %._crit_edge.loopexit, !llvm.loop !15

._crit_edge.loopexit:                             ; preds = %20
  %.pre = load ptr, ptr %4, align 8, !tbaa !3
  br label %._crit_edge

._crit_edge:                                      ; preds = %._crit_edge.loopexit, %3
  %24 = phi ptr [ %.pre, %._crit_edge.loopexit ], [ %2, %3 ]
  ret ptr %24
}